target datalayout = "e-m:e-p270:32:32-p271:32:32-p272:64:64-i64:64-i128:128-f80:128-n8:16:32:64-S128"
target triple = "x86_64-pc-linux-gnu"

%struct.hwloc_topology = type { i32, i32, i32, ptr, ptr, i64, [20 x i32], [20 x i32], i64, i64, i32, ptr, i64, ptr, i64, [6 x %struct.hwloc_special_level_s], ptr, ptr, %struct.hwloc_binding_hooks, %struct.hwloc_topology_support, %struct.hwloc_infos_s, ptr, ptr, i32, ptr, ptr, i32, i32, ptr, i32, i32, ptr, i32, i32, i32, [5 x float], i32, ptr, ptr, i32, i32, ptr, i32, %struct.hwloc_numanode_attr_s, i32, i32, ptr, i64, i32, ptr, ptr, ptr }
%struct.hwloc_special_level_s = type { i32, ptr, ptr, ptr }
%struct.hwloc_binding_hooks = type { ptr, ptr, ptr, ptr, ptr, ptr, ptr, ptr, ptr, ptr, ptr, ptr, ptr, ptr, ptr, ptr, ptr, ptr, ptr, ptr, ptr, ptr, ptr, ptr }
%struct.hwloc_topology_support = type { ptr, ptr, ptr, ptr }
%struct.hwloc_infos_s = type { ptr, i32, i32 }
%struct.hwloc_numanode_attr_s = type { i64, i32, ptr }
%struct.hwloc_internal_distances_s = type { ptr, i32, i32, ptr, i32, ptr, ptr, i64, i32, ptr, ptr, ptr }
%struct.hwloc_distances_container_s = type { i32, %struct.hwloc_distances_s }
%struct.hwloc_distances_s = type { i32, ptr, i64, ptr }

; Function Attrs: nounwind uwtable
define void @hwloc_distances_release(ptr noundef %0, ptr noundef %1) #0 {
  %3 = alloca ptr, align 8
  %4 = alloca ptr, align 8
  %5 = alloca ptr, align 8
  store ptr %0, ptr %3, align 8, !tbaa !3
  store ptr %1, ptr %4, align 8, !tbaa !70
  call void @llvm.lifetime.start.p0(i64 8, ptr %5) #15
  %6 = load ptr, ptr %4, align 8, !tbaa !70
  %7 = getelementptr inbounds i8, ptr %6, i64 sub (i64 0, i64 ptrtoint (ptr getelementptr inbounds nuw (%struct.hwloc_distances_container_s, ptr null, i32 0, i32 1) to i64))
  store ptr %7, ptr %5, align 8, !tbaa !72
  %8 = load ptr, ptr %4, align 8, !tbaa !70
  %9 = getelementptr inbounds nuw %struct.hwloc_distances_s, ptr %8, i32 0, i32 3
  %10 = load ptr, ptr %9, align 8, !tbaa !78
  call void @free(ptr noundef %10) #15
  %11 = load ptr, ptr %4, align 8, !tbaa !70
  %12 = getelementptr inbounds nuw %struct.hwloc_distances_s, ptr %11, i32 0, i32 1
  %13 = load ptr, ptr %12, align 8, !tbaa !79
  call void @free(ptr noundef %13) #15
  %14 = load ptr, ptr %5, align 8, !tbaa !72
  call void @free(ptr noundef %14) #15
  call void @llvm.lifetime.end.p0(i64 8, ptr %5) #15
  ret void
}

; Function Attrs: nounwind uwtable
define internal ptr @hwloc_distances_get_one(ptr noundef %0, ptr noundef %1) #0 {
  %3 = alloca ptr, align 8
  %4 = alloca ptr, align 8
  %5 = alloca ptr, align 8
  %6 = alloca ptr, align 8
  %7 = alloca ptr, align 8
  %8 = alloca i32, align 4
  %9 = alloca i32, align 4
  store ptr %0, ptr %4, align 8, !tbaa !3
  store ptr %1, ptr %5, align 8, !tbaa !46
  call void @llvm.lifetime.start.p0(i64 8, ptr %6) #15
  call void @llvm.lifetime.start.p0(i64 8, ptr %7) #15
  call void @llvm.lifetime.start.p0(i64 4, ptr %8) #15
  %10 = call noalias ptr @malloc(i64 noundef 40) #19
  store ptr %10, ptr %6, align 8, !tbaa !72
  %11 = load ptr, ptr %6, align 8, !tbaa !72
  %12 = icmp ne ptr %11, null
  br i1 %12, label %14, label %13

13:                                               ; preds = %2
  store ptr null, ptr %3, align 8
  store i32 1, ptr %9, align 4
  br label %85

14:                                               ; preds = %2
  %15 = load ptr, ptr %6, align 8, !tbaa !72
  %16 = getelementptr inbounds nuw %struct.hwloc_distances_container_s, ptr %15, i32 0, i32 1
  store ptr %16, ptr %7, align 8, !tbaa !70
  %17 = load ptr, ptr %5, align 8, !tbaa !46
  %18 = getelementptr inbounds nuw %struct.hwloc_internal_distances_s, ptr %17, i32 0, i32 4
  %19 = load i32, ptr %18, align 8, !tbaa !61
  %20 = load ptr, ptr %7, align 8, !tbaa !70
  %21 = getelementptr inbounds nuw %struct.hwloc_distances_s, ptr %20, i32 0, i32 0
  store i32 %19, ptr %21, align 8, !tbaa !126
  store i32 %19, ptr %8, align 4, !tbaa !38
  %22 = load i32, ptr %8, align 4, !tbaa !38
  %23 = zext i32 %22 to i64
  %24 = mul i64 %23, 8
  %25 = call noalias ptr @malloc(i64 noundef %24) #19
  %26 = load ptr, ptr %7, align 8, !tbaa !70
  %27 = getelementptr inbounds nuw %struct.hwloc_distances_s, ptr %26, i32 0, i32 1
  store ptr %25, ptr %27, align 8, !tbaa !79
  %28 = load ptr, ptr %7, align 8, !tbaa !70
  %29 = getelementptr inbounds nuw %struct.hwloc_distances_s, ptr %28, i32 0, i32 1
  %30 = load ptr, ptr %29, align 8, !tbaa !79
  %31 = icmp ne ptr %30, null
  br i1 %31, label %33, label %32

32:                                               ; preds = %14
  br label %83

33:                                               ; preds = %14
  %34 = load ptr, ptr %7, align 8, !tbaa !70
  %35 = getelementptr inbounds nuw %struct.hwloc_distances_s, ptr %34, i32 0, i32 1
  %36 = load ptr, ptr %35, align 8, !tbaa !79
  %37 = load ptr, ptr %5, align 8, !tbaa !46
  %38 = getelementptr inbounds nuw %struct.hwloc_internal_distances_s, ptr %37, i32 0, i32 9
  %39 = load ptr, ptr %38, align 8, !tbaa !56
  %40 = load i32, ptr %8, align 4, !tbaa !38
  %41 = zext i32 %40 to i64
  %42 = mul i64 %41, 8
  call void @llvm.memcpy.p0.p0.i64(ptr align 8 %36, ptr align 8 %39, i64 %42, i1 false)
  %43 = load i32, ptr %8, align 4, !tbaa !38
  %44 = load i32, ptr %8, align 4, !tbaa !38
  %45 = mul i32 %43, %44
  %46 = zext i32 %45 to i64
  %47 = mul i64 %46, 8
  %48 = call noalias ptr @malloc(i64 noundef %47) #19
  %49 = load ptr, ptr %7, align 8, !tbaa !70
  %50 = getelementptr inbounds nuw %struct.hwloc_distances_s, ptr %49, i32 0, i32 3
  store ptr %48, ptr %50, align 8, !tbaa !78
  %51 = load ptr, ptr %7, align 8, !tbaa !70
  %52 = getelementptr inbounds nuw %struct.hwloc_distances_s, ptr %51, i32 0, i32 3
  %53 = load ptr, ptr %52, align 8, !tbaa !78
  %54 = icmp ne ptr %53, null
  br i1 %54, label %56, label %55

55:                                               ; preds = %33
  br label %79

56:                                               ; preds = %33
  %57 = load ptr, ptr %7, align 8, !tbaa !70
  %58 = getelementptr inbounds nuw %struct.hwloc_distances_s, ptr %57, i32 0, i32 3
  %59 = load ptr, ptr %58, align 8, !tbaa !78
  %60 = load ptr, ptr %5, align 8, !tbaa !46
  %61 = getelementptr inbounds nuw %struct.hwloc_internal_distances_s, ptr %60, i32 0, i32 6
  %62 = load ptr, ptr %61, align 8, !tbaa !57
  %63 = load i32, ptr %8, align 4, !tbaa !38
  %64 = load i32, ptr %8, align 4, !tbaa !38
  %65 = mul i32 %63, %64
  %66 = zext i32 %65 to i64
  %67 = mul i64 %66, 8
  call void @llvm.memcpy.p0.p0.i64(ptr align 8 %59, ptr align 8 %62, i64 %67, i1 false)
  %68 = load ptr, ptr %5, align 8, !tbaa !46
  %69 = getelementptr inbounds nuw %struct.hwloc_internal_distances_s, ptr %68, i32 0, i32 7
  %70 = load i64, ptr %69, align 8, !tbaa !63
  %71 = load ptr, ptr %7, align 8, !tbaa !70
  %72 = getelementptr inbounds nuw %struct.hwloc_distances_s, ptr %71, i32 0, i32 2
  store i64 %70, ptr %72, align 8, !tbaa !129
  %73 = load ptr, ptr %5, align 8, !tbaa !46
  %74 = getelementptr inbounds nuw %struct.hwloc_internal_distances_s, ptr %73, i32 0, i32 1
  %75 = load i32, ptr %74, align 8, !tbaa !64
  %76 = load ptr, ptr %6, align 8, !tbaa !72
  %77 = getelementptr inbounds nuw %struct.hwloc_distances_container_s, ptr %76, i32 0, i32 0
  store i32 %75, ptr %77, align 8, !tbaa !74
  %78 = load ptr, ptr %7, align 8, !tbaa !70
  store ptr %78, ptr %3, align 8
  store i32 1, ptr %9, align 4
  br label %85

79:                                               ; preds = %55
  %80 = load ptr, ptr %7, align 8, !tbaa !70
  %81 = getelementptr inbounds nuw %struct.hwloc_distances_s, ptr %80, i32 0, i32 1
  %82 = load ptr, ptr %81, align 8, !tbaa !79
  call void @free(ptr noundef %82) #15
  br label %83

83:                                               ; preds = %79, %32
  %84 = load ptr, ptr %6, align 8, !tbaa !72
  call void @free(ptr noundef %84) #15
  store ptr null, ptr %3, align 8
  store i32 1, ptr %9, align 4
  br label %85

85:                                               ; preds = %83, %56, %13
  call void @llvm.lifetime.end.p0(i64 4, ptr %8) #15
  call void @llvm.lifetime.end.p0(i64 8, ptr %7) #15
  call void @llvm.lifetime.end.p0(i64 8, ptr %6) #15
  %86 = load ptr, ptr %3, align 8
  ret ptr %86
}

; Function Attrs: nounwind uwtable
define internal i32 @hwloc__distances_get(ptr noundef %0, ptr noundef %1, i32 noundef %2, ptr noundef %3, ptr noundef %4, i64 noundef %5, i64 noundef %6) #0 {
  %8 = alloca i32, align 4
  %9 = alloca ptr, align 8
  %10 = alloca ptr, align 8
  %11 = alloca i32, align 4
  %12 = alloca ptr, align 8
  %13 = alloca ptr, align 8
  %14 = alloca i64, align 8
  %15 = alloca i64, align 8
  %16 = alloca ptr, align 8
  %17 = alloca i32, align 4
  %18 = alloca i32, align 4
  %19 = alloca i32, align 4
  %20 = alloca i64, align 8
  %21 = alloca i64, align 8
  %22 = alloca ptr, align 8
  store ptr %0, ptr %9, align 8, !tbaa !3
  store ptr %1, ptr %10, align 8, !tbaa !39
  store i32 %2, ptr %11, align 4, !tbaa !38
  store ptr %3, ptr %12, align 8, !tbaa !106
  store ptr %4, ptr %13, align 8, !tbaa !121
  store i64 %5, ptr %14, align 8, !tbaa !80
  store i64 %6, ptr %15, align 8, !tbaa !80
  call void @llvm.lifetime.start.p0(i64 8, ptr %16) #15
  call void @llvm.lifetime.start.p0(i64 4, ptr %17) #15
  store i32 0, ptr %17, align 4, !tbaa !38
  call void @llvm.lifetime.start.p0(i64 4, ptr %18) #15
  %23 = load i64, ptr %15, align 8, !tbaa !80
  %24 = icmp ne i64 %23, 0
  br i1 %24, label %25, label %27

25:                                               ; preds = %7
  %26 = call ptr @__errno_location() #17
  store i32 22, ptr %26, align 4, !tbaa !38
  store i32 -1, ptr %8, align 4
  store i32 1, ptr %19, align 4
  br label %152

27:                                               ; preds = %7
  %28 = load ptr, ptr %9, align 8, !tbaa !3
  call void @hwloc_internal_distances_refresh(ptr noundef %28)
  %29 = load ptr, ptr %9, align 8, !tbaa !3
  %30 = getelementptr inbounds nuw %struct.hwloc_topology, ptr %29, i32 0, i32 24
  %31 = load ptr, ptr %30, align 8, !tbaa !33
  store ptr %31, ptr %16, align 8, !tbaa !46
  br label %32

32:                                               ; preds = %114, %27
  %33 = load ptr, ptr %16, align 8, !tbaa !46
  %34 = icmp ne ptr %33, null
  br i1 %34, label %35, label %118

35:                                               ; preds = %32
  call void @llvm.lifetime.start.p0(i64 8, ptr %20) #15
  %36 = load i64, ptr %14, align 8, !tbaa !80
  %37 = and i64 %36, 3
  store i64 %37, ptr %20, align 8, !tbaa !80
  call void @llvm.lifetime.start.p0(i64 8, ptr %21) #15
  %38 = load i64, ptr %14, align 8, !tbaa !80
  %39 = and i64 %38, 44
  store i64 %39, ptr %21, align 8, !tbaa !80
  %40 = load ptr, ptr %10, align 8, !tbaa !39
  %41 = icmp ne ptr %40, null
  br i1 %41, label %42, label %55

42:                                               ; preds = %35
  %43 = load ptr, ptr %16, align 8, !tbaa !46
  %44 = getelementptr inbounds nuw %struct.hwloc_internal_distances_s, ptr %43, i32 0, i32 0
  %45 = load ptr, ptr %44, align 8, !tbaa !53
  %46 = icmp ne ptr %45, null
  br i1 %46, label %47, label %54

47:                                               ; preds = %42
  %48 = load ptr, ptr %10, align 8, !tbaa !39
  %49 = load ptr, ptr %16, align 8, !tbaa !46
  %50 = getelementptr inbounds nuw %struct.hwloc_internal_distances_s, ptr %49, i32 0, i32 0
  %51 = load ptr, ptr %50, align 8, !tbaa !53
  %52 = call i32 @strcmp(ptr noundef %48, ptr noundef %51) #16
  %53 = icmp ne i32 %52, 0
  br i1 %53, label %54, label %55

54:                                               ; preds = %47, %42
  store i32 4, ptr %19, align 4
  br label %111

55:                                               ; preds = %47, %35
  %56 = load i32, ptr %11, align 4, !tbaa !38
  %57 = icmp ne i32 %56, -1
  br i1 %57, label %58, label %65

58:                                               ; preds = %55
  %59 = load i32, ptr %11, align 4, !tbaa !38
  %60 = load ptr, ptr %16, align 8, !tbaa !46
  %61 = getelementptr inbounds nuw %struct.hwloc_internal_distances_s, ptr %60, i32 0, i32 2
  %62 = load i32, ptr %61, align 4, !tbaa !62
  %63 = icmp ne i32 %59, %62
  br i1 %63, label %64, label %65

64:                                               ; preds = %58
  store i32 4, ptr %19, align 4
  br label %111

65:                                               ; preds = %58, %55
  %66 = load i64, ptr %20, align 8, !tbaa !80
  %67 = icmp ne i64 %66, 0
  br i1 %67, label %68, label %76

68:                                               ; preds = %65
  %69 = load i64, ptr %20, align 8, !tbaa !80
  %70 = load ptr, ptr %16, align 8, !tbaa !46
  %71 = getelementptr inbounds nuw %struct.hwloc_internal_distances_s, ptr %70, i32 0, i32 7
  %72 = load i64, ptr %71, align 8, !tbaa !63
  %73 = and i64 %69, %72
  %74 = icmp ne i64 %73, 0
  br i1 %74, label %76, label %75

75:                                               ; preds = %68
  store i32 4, ptr %19, align 4
  br label %111

76:                                               ; preds = %68, %65
  %77 = load i64, ptr %21, align 8, !tbaa !80
  %78 = icmp ne i64 %77, 0
  br i1 %78, label %79, label %87

79:                                               ; preds = %76
  %80 = load i64, ptr %21, align 8, !tbaa !80
  %81 = load ptr, ptr %16, align 8, !tbaa !46
  %82 = getelementptr inbounds nuw %struct.hwloc_internal_distances_s, ptr %81, i32 0, i32 7
  %83 = load i64, ptr %82, align 8, !tbaa !63
  %84 = and i64 %80, %83
  %85 = icmp ne i64 %84, 0
  br i1 %85, label %87, label %86

86:                                               ; preds = %79
  store i32 4, ptr %19, align 4
  br label %111

87:                                               ; preds = %79, %76
  %88 = load i32, ptr %17, align 4, !tbaa !38
  %89 = load ptr, ptr %12, align 8, !tbaa !106
  %90 = load i32, ptr %89, align 4, !tbaa !38
  %91 = icmp ult i32 %88, %90
  br i1 %91, label %92, label %108

92:                                               ; preds = %87
  call void @llvm.lifetime.start.p0(i64 8, ptr %22) #15
  %93 = load ptr, ptr %9, align 8, !tbaa !3
  %94 = load ptr, ptr %16, align 8, !tbaa !46
  %95 = call ptr @hwloc_distances_get_one(ptr noundef %93, ptr noundef %94)
  store ptr %95, ptr %22, align 8, !tbaa !70
  %96 = load ptr, ptr %22, align 8, !tbaa !70
  %97 = icmp ne ptr %96, null
  br i1 %97, label %99, label %98

98:                                               ; preds = %92
  store i32 5, ptr %19, align 4
  br label %105

99:                                               ; preds = %92
  %100 = load ptr, ptr %22, align 8, !tbaa !70
  %101 = load ptr, ptr %13, align 8, !tbaa !121
  %102 = load i32, ptr %17, align 4, !tbaa !38
  %103 = zext i32 %102 to i64
  %104 = getelementptr inbounds nuw ptr, ptr %101, i64 %103
  store ptr %100, ptr %104, align 8, !tbaa !70
  store i32 0, ptr %19, align 4
  br label %105

105:                                              ; preds = %98, %99
  call void @llvm.lifetime.end.p0(i64 8, ptr %22) #15
  %106 = load i32, ptr %19, align 4
  switch i32 %106, label %111 [
    i32 0, label %107
  ]

107:                                              ; preds = %105
  br label %108

108:                                              ; preds = %107, %87
  %109 = load i32, ptr %17, align 4, !tbaa !38
  %110 = add i32 %109, 1
  store i32 %110, ptr %17, align 4, !tbaa !38
  store i32 0, ptr %19, align 4
  br label %111

111:                                              ; preds = %108, %105, %86, %75, %64, %54
  call void @llvm.lifetime.end.p0(i64 8, ptr %21) #15
  call void @llvm.lifetime.end.p0(i64 8, ptr %20) #15
  %112 = load i32, ptr %19, align 4
  switch i32 %112, label %152 [
    i32 0, label %113
    i32 4, label %114
    i32 5, label %136
  ]

113:                                              ; preds = %111
  br label %114

114:                                              ; preds = %113, %111
  %115 = load ptr, ptr %16, align 8, !tbaa !46
  %116 = getelementptr inbounds nuw %struct.hwloc_internal_distances_s, ptr %115, i32 0, i32 11
  %117 = load ptr, ptr %116, align 8, !tbaa !47
  store ptr %117, ptr %16, align 8, !tbaa !46
  br label %32, !llvm.loop !123

118:                                              ; preds = %32
  %119 = load i32, ptr %17, align 4, !tbaa !38
  store i32 %119, ptr %18, align 4, !tbaa !38
  br label %120

120:                                              ; preds = %130, %118
  %121 = load i32, ptr %18, align 4, !tbaa !38
  %122 = load ptr, ptr %12, align 8, !tbaa !106
  %123 = load i32, ptr %122, align 4, !tbaa !38
  %124 = icmp ult i32 %121, %123
  br i1 %124, label %125, label %133

125:                                              ; preds = %120
  %126 = load ptr, ptr %13, align 8, !tbaa !121
  %127 = load i32, ptr %18, align 4, !tbaa !38
  %128 = zext i32 %127 to i64
  %129 = getelementptr inbounds nuw ptr, ptr %126, i64 %128
  store ptr null, ptr %129, align 8, !tbaa !70
  br label %130

130:                                              ; preds = %125
  %131 = load i32, ptr %18, align 4, !tbaa !38
  %132 = add i32 %131, 1
  store i32 %132, ptr %18, align 4, !tbaa !38
  br label %120, !llvm.loop !124

133:                                              ; preds = %120
  %134 = load i32, ptr %17, align 4, !tbaa !38
  %135 = load ptr, ptr %12, align 8, !tbaa !106
  store i32 %134, ptr %135, align 4, !tbaa !38
  store i32 0, ptr %8, align 4
  store i32 1, ptr %19, align 4
  br label %152

136:                                              ; preds = %111
  store i32 0, ptr %18, align 4, !tbaa !38
  br label %137

137:                                              ; preds = %148, %136
  %138 = load i32, ptr %18, align 4, !tbaa !38
  %139 = load i32, ptr %17, align 4, !tbaa !38
  %140 = icmp ult i32 %138, %139
  br i1 %140, label %141, label %151

141:                                              ; preds = %137
  %142 = load ptr, ptr %9, align 8, !tbaa !3
  %143 = load ptr, ptr %13, align 8, !tbaa !121
  %144 = load i32, ptr %18, align 4, !tbaa !38
  %145 = zext i32 %144 to i64
  %146 = getelementptr inbounds nuw ptr, ptr %143, i64 %145
  %147 = load ptr, ptr %146, align 8, !tbaa !70
  call void @hwloc_distances_release(ptr noundef %142, ptr noundef %147)
  br label %148

148:                                              ; preds = %141
  %149 = load i32, ptr %18, align 4, !tbaa !38
  %150 = add i32 %149, 1
  store i32 %150, ptr %18, align 4, !tbaa !38
  br label %137, !llvm.loop !125

151:                                              ; preds = %137
  store i32 -1, ptr %8, align 4
  store i32 1, ptr %19, align 4
  br label %152

152:                                              ; preds = %151, %133, %111, %25
  call void @llvm.lifetime.end.p0(i64 4, ptr %18) #15
  call void @llvm.lifetime.end.p0(i64 4, ptr %17) #15
  call void @llvm.lifetime.end.p0(i64 8, ptr %16) #15
  %153 = load i32, ptr %8, align 4
  ret i32 %153
}